; Function Attrs: mustprogress uwtable
define void @_ZN6colvar3cvc22init_as_periodic_angleEv(ptr noundef nonnull align 8 dereferenceable(1648) %0) local_unnamed_addr #1 align 2 {
  %2 = alloca i32, align 4
  %3 = getelementptr inbounds i8, ptr %0, i64 632
  store i32 1, ptr %2, align 4
  call void @_ZN11colvarvalue4typeERKNS_4TypeE(ptr noundef nonnull align 8 dereferenceable(168) %3, ptr noundef nonnull align 4 dereferenceable(4) %2)
  %4 = getelementptr inbounds i8, ptr %0, i64 320
  %5 = call noundef i32 @_ZN10colvardeps6enableEibb(ptr noundef nonnull align 8 dereferenceable(120) %4, i32 noundef 2, i1 noundef zeroext false, i1 noundef zeroext true)
  %6 = getelementptr inbounds i8, ptr %0, i64 552
  store double 3.600000e+02, ptr %6, align 8
  call void @_ZN6colvar3cvc22init_scalar_boundariesEdd(ptr noundef nonnull align 8 dereferenceable(1648) %0, double noundef -1.800000e+02, double noundef 1.800000e+02)
  ret void
}